; Function Attrs: mustprogress nofree norecurse nosync nounwind willreturn memory(read, inaccessiblemem: none) uwtable
define noundef float @_ZNK10OpenSubdiv6v3_6_03Far10PatchTable34GetSingleCreasePatchSharpnessValueERKNS2_11PatchHandleE(ptr nocapture noundef nonnull readonly align 8 dereferenceable(273) %0, ptr nocapture noundef nonnull readonly align 4 dereferenceable(12) %1) local_unnamed_addr #6 align 2 {
  %3 = getelementptr inbounds nuw i8, ptr %0, i64 224
  %4 = getelementptr inbounds nuw i8, ptr %1, i64 4
  %5 = load i32, ptr %4, align 4
  %6 = sext i32 %5 to i64
  %7 = load ptr, ptr %3, align 8
  %8 = getelementptr inbounds i32, ptr %7, i64 %6
  %9 = load i32, ptr %8, align 4
  %10 = icmp eq i32 %9, -1
  br i1 %10, label %17, label %11

11:                                               ; preds = %2
  %12 = getelementptr inbounds nuw i8, ptr %0, i64 248
  %13 = sext i32 %9 to i64
  %14 = load ptr, ptr %12, align 8
  %15 = getelementptr inbounds float, ptr %14, i64 %13
  %16 = load float, ptr %15, align 4
  br label %17

17:                                               ; preds = %2, %11
  %.0 = phi float [ %16, %11 ], [ 0.000000e+00, %2 ]
  ret float %.0
}